target datalayout = "e-m:e-p270:32:32-p271:32:32-p272:64:64-i64:64-i128:128-f80:128-n8:16:32:64-S128"
target triple = "x86_64-pc-linux-gnu"

%struct.Path = type { i32, i32, ptr, ptr, ptr, i8, i8, i32, double, i32, double, double, ptr }
%struct.IndexPath = type { %struct.Path, ptr, ptr, ptr, ptr, i32, double, double }
%struct.ForEachState = type { ptr, i32 }
%struct.List = type { i32, i32, i32, ptr, [0 x %union.ListCell] }
%union.ListCell = type { ptr }
%struct.Node = type { i32 }
%struct.BitmapAndPath = type { %struct.Path, ptr, double }
%struct.BitmapOrPath = type { %struct.Path, ptr, double }

@cpu_operator_cost = dso_local global double 2.500000e-03, align 8
@.str = private unnamed_addr constant [27 x i8] c"unrecognized node type: %d\00", align 1
@.str.1 = private unnamed_addr constant [11 x i8] c"costsize.c\00", align 1
@__func__.cost_bitmap_tree_node = private unnamed_addr constant [22 x i8] c"cost_bitmap_tree_node\00", align 1

; Function Attrs: inlinehint nounwind uwtable
define internal ptr @list_head(ptr noundef %0) #4 {
  %2 = alloca ptr, align 8
  store ptr %0, ptr %2, align 8
  %3 = load ptr, ptr %2, align 8
  %4 = icmp ne ptr %3, null
  br i1 %4, label %5, label %10

5:                                                ; preds = %1
  %6 = load ptr, ptr %2, align 8
  %7 = getelementptr inbounds nuw %struct.List, ptr %6, i32 0, i32 3
  %8 = load ptr, ptr %7, align 8
  %9 = getelementptr inbounds %union.ListCell, ptr %8, i64 0
  br label %11

10:                                               ; preds = %1
  br label %11

11:                                               ; preds = %10, %5
  %12 = phi ptr [ %9, %5 ], [ null, %10 ]
  ret ptr %12
}

; Function Attrs: nounwind uwtable
define dso_local void @cost_bitmap_tree_node(ptr noundef %0, ptr noundef %1, ptr noundef %2) #0 {
  %4 = alloca ptr, align 8
  %5 = alloca ptr, align 8
  %6 = alloca ptr, align 8
  store ptr %0, ptr %4, align 8
  store ptr %1, ptr %5, align 8
  store ptr %2, ptr %6, align 8
  %7 = load ptr, ptr %4, align 8
  %8 = getelementptr inbounds nuw %struct.Node, ptr %7, i32 0, i32 0
  %9 = load i32, ptr %8, align 4
  %10 = icmp eq i32 %9, 279
  br i1 %10, label %11, label %28

11:                                               ; preds = %3
  %12 = load ptr, ptr %4, align 8
  %13 = getelementptr inbounds nuw %struct.IndexPath, ptr %12, i32 0, i32 6
  %14 = load double, ptr %13, align 8
  %15 = load ptr, ptr %5, align 8
  store double %14, ptr %15, align 8
  %16 = load ptr, ptr %4, align 8
  %17 = getelementptr inbounds nuw %struct.IndexPath, ptr %16, i32 0, i32 7
  %18 = load double, ptr %17, align 8
  %19 = load ptr, ptr %6, align 8
  store double %18, ptr %19, align 8
  %20 = load double, ptr @cpu_operator_cost, align 8
  %21 = fmul double 1.000000e-01, %20
  %22 = load ptr, ptr %4, align 8
  %23 = getelementptr inbounds nuw %struct.Path, ptr %22, i32 0, i32 8
  %24 = load double, ptr %23, align 8
  %25 = load ptr, ptr %5, align 8
  %26 = load double, ptr %25, align 8
  %27 = call double @llvm.fmuladd.f64(double %21, double %24, double %26)
  store double %27, ptr %25, align 8
  br label %73

28:                                               ; preds = %3
  %29 = load ptr, ptr %4, align 8
  %30 = getelementptr inbounds nuw %struct.Node, ptr %29, i32 0, i32 0
  %31 = load i32, ptr %30, align 4
  %32 = icmp eq i32 %31, 282
  br i1 %32, label %33, label %42

33:                                               ; preds = %28
  %34 = load ptr, ptr %4, align 8
  %35 = getelementptr inbounds nuw %struct.Path, ptr %34, i32 0, i32 11
  %36 = load double, ptr %35, align 8
  %37 = load ptr, ptr %5, align 8
  store double %36, ptr %37, align 8
  %38 = load ptr, ptr %4, align 8
  %39 = getelementptr inbounds nuw %struct.BitmapAndPath, ptr %38, i32 0, i32 2
  %40 = load double, ptr %39, align 8
  %41 = load ptr, ptr %6, align 8
  store double %40, ptr %41, align 8
  br label %72

42:                                               ; preds = %28
  %43 = load ptr, ptr %4, align 8
  %44 = getelementptr inbounds nuw %struct.Node, ptr %43, i32 0, i32 0
  %45 = load i32, ptr %44, align 4
  %46 = icmp eq i32 %45, 283
  br i1 %46, label %47, label %56

47:                                               ; preds = %42
  %48 = load ptr, ptr %4, align 8
  %49 = getelementptr inbounds nuw %struct.Path, ptr %48, i32 0, i32 11
  %50 = load double, ptr %49, align 8
  %51 = load ptr, ptr %5, align 8
  store double %50, ptr %51, align 8
  %52 = load ptr, ptr %4, align 8
  %53 = getelementptr inbounds nuw %struct.BitmapOrPath, ptr %52, i32 0, i32 2
  %54 = load double, ptr %53, align 8
  %55 = load ptr, ptr %6, align 8
  store double %54, ptr %55, align 8
  br label %71

56:                                               ; preds = %42
  br label %57

57:                                               ; preds = %56
  br i1 true, label %58, label %60

58:                                               ; preds = %57
  %59 = call zeroext i1 @errstart_cold(i32 noundef 21, ptr noundef null) #10
  br i1 %59, label %62, label %67

60:                                               ; preds = %57
  %61 = call zeroext i1 @errstart(i32 noundef 21, ptr noundef null)
  br i1 %61, label %62, label %67

62:                                               ; preds = %60, %58
  %63 = load ptr, ptr %4, align 8
  %64 = getelementptr inbounds nuw %struct.Node, ptr %63, i32 0, i32 0
  %65 = load i32, ptr %64, align 4
  %66 = call i32 (ptr, ...) @errmsg_internal(ptr noundef @.str, i32 noundef %65)
  call void @errfinish(ptr noundef @.str.1, i32 noundef 1149, ptr noundef @__func__.cost_bitmap_tree_node)
  br label %67

67:                                               ; preds = %62, %60, %58
  unreachable

68:                                               ; No predecessors!
  %69 = load ptr, ptr %6, align 8
  store double 0.000000e+00, ptr %69, align 8
  %70 = load ptr, ptr %5, align 8
  store double 0.000000e+00, ptr %70, align 8
  br label %71

71:                                               ; preds = %68, %47
  br label %72

72:                                               ; preds = %71, %33
  br label %73

73:                                               ; preds = %72, %11
  ret void
}

; Function Attrs: nounwind uwtable
define dso_local void @cost_bitmap_and_node(ptr noundef %0, ptr noundef %1) #0 {
  %3 = alloca ptr, align 8
  %4 = alloca ptr, align 8
  %5 = alloca double, align 8
  %6 = alloca double, align 8
  %7 = alloca ptr, align 8
  %8 = alloca %struct.ForEachState, align 8
  %9 = alloca ptr, align 8
  %10 = alloca double, align 8
  %11 = alloca double, align 8
  store ptr %0, ptr %3, align 8
  store ptr %1, ptr %4, align 8
  call void @llvm.lifetime.start.p0(i64 8, ptr %5) #9
  call void @llvm.lifetime.start.p0(i64 8, ptr %6) #9
  call void @llvm.lifetime.start.p0(i64 8, ptr %7) #9
  store double 0.000000e+00, ptr %5, align 8
  store double 1.000000e+00, ptr %6, align 8
  call void @llvm.lifetime.start.p0(i64 16, ptr %8) #9
  %12 = getelementptr inbounds nuw %struct.ForEachState, ptr %8, i32 0, i32 0
  %13 = load ptr, ptr %3, align 8
  %14 = getelementptr inbounds nuw %struct.BitmapAndPath, ptr %13, i32 0, i32 1
  %15 = load ptr, ptr %14, align 8
  store ptr %15, ptr %12, align 8
  %16 = getelementptr inbounds nuw %struct.ForEachState, ptr %8, i32 0, i32 1
  store i32 0, ptr %16, align 8
  %17 = getelementptr i8, ptr %8, i64 12
  call void @llvm.memset.p0.i64(ptr align 4 %17, i8 0, i64 4, i1 false)
  br label %18

18:                                               ; preds = %65, %2
  %19 = getelementptr inbounds nuw %struct.ForEachState, ptr %8, i32 0, i32 0
  %20 = load ptr, ptr %19, align 8
  %21 = icmp ne ptr %20, null
  br i1 %21, label %22, label %39

22:                                               ; preds = %18
  %23 = getelementptr inbounds nuw %struct.ForEachState, ptr %8, i32 0, i32 1
  %24 = load i32, ptr %23, align 8
  %25 = getelementptr inbounds nuw %struct.ForEachState, ptr %8, i32 0, i32 0
  %26 = load ptr, ptr %25, align 8
  %27 = getelementptr inbounds nuw %struct.List, ptr %26, i32 0, i32 1
  %28 = load i32, ptr %27, align 4
  %29 = icmp slt i32 %24, %28
  br i1 %29, label %30, label %39

30:                                               ; preds = %22
  %31 = getelementptr inbounds nuw %struct.ForEachState, ptr %8, i32 0, i32 0
  %32 = load ptr, ptr %31, align 8
  %33 = getelementptr inbounds nuw %struct.List, ptr %32, i32 0, i32 3
  %34 = load ptr, ptr %33, align 8
  %35 = getelementptr inbounds nuw %struct.ForEachState, ptr %8, i32 0, i32 1
  %36 = load i32, ptr %35, align 8
  %37 = sext i32 %36 to i64
  %38 = getelementptr inbounds %union.ListCell, ptr %34, i64 %37
  store ptr %38, ptr %7, align 8
  br label %40

39:                                               ; preds = %22, %18
  store ptr null, ptr %7, align 8
  br label %40

40:                                               ; preds = %39, %30
  %41 = phi i32 [ 1, %30 ], [ 0, %39 ]
  %42 = icmp ne i32 %41, 0
  br i1 %42, label %44, label %43

43:                                               ; preds = %40
  call void @llvm.lifetime.end.p0(i64 16, ptr %8) #9
  br label %69

44:                                               ; preds = %40
  call void @llvm.lifetime.start.p0(i64 8, ptr %9) #9
  %45 = load ptr, ptr %7, align 8
  %46 = load ptr, ptr %45, align 8
  store ptr %46, ptr %9, align 8
  call void @llvm.lifetime.start.p0(i64 8, ptr %10) #9
  call void @llvm.lifetime.start.p0(i64 8, ptr %11) #9
  %47 = load ptr, ptr %9, align 8
  call void @cost_bitmap_tree_node(ptr noundef %47, ptr noundef %10, ptr noundef %11)
  %48 = load double, ptr %11, align 8
  %49 = load double, ptr %6, align 8
  %50 = fmul double %49, %48
  store double %50, ptr %6, align 8
  %51 = load double, ptr %10, align 8
  %52 = load double, ptr %5, align 8
  %53 = fadd double %52, %51
  store double %53, ptr %5, align 8
  %54 = load ptr, ptr %7, align 8
  %55 = load ptr, ptr %3, align 8
  %56 = getelementptr inbounds nuw %struct.BitmapAndPath, ptr %55, i32 0, i32 1
  %57 = load ptr, ptr %56, align 8
  %58 = call ptr @list_head(ptr noundef %57)
  %59 = icmp ne ptr %54, %58
  br i1 %59, label %60, label %64

60:                                               ; preds = %44
  %61 = load double, ptr @cpu_operator_cost, align 8
  %62 = load double, ptr %5, align 8
  %63 = call double @llvm.fmuladd.f64(double 1.000000e+02, double %61, double %62)
  store double %63, ptr %5, align 8
  br label %64

64:                                               ; preds = %60, %44
  call void @llvm.lifetime.end.p0(i64 8, ptr %11) #9
  call void @llvm.lifetime.end.p0(i64 8, ptr %10) #9
  call void @llvm.lifetime.end.p0(i64 8, ptr %9) #9
  br label %65

65:                                               ; preds = %64
  %66 = getelementptr inbounds nuw %struct.ForEachState, ptr %8, i32 0, i32 1
  %67 = load i32, ptr %66, align 8
  %68 = add i32 %67, 1
  store i32 %68, ptr %66, align 8
  br label %18, !llvm.loop !9

69:                                               ; preds = %43
  %70 = load double, ptr %6, align 8
  %71 = load ptr, ptr %3, align 8
  %72 = getelementptr inbounds nuw %struct.BitmapAndPath, ptr %71, i32 0, i32 2
  store double %70, ptr %72, align 8
  %73 = load ptr, ptr %3, align 8
  %74 = getelementptr inbounds nuw %struct.BitmapAndPath, ptr %73, i32 0, i32 0
  %75 = getelementptr inbounds nuw %struct.Path, ptr %74, i32 0, i32 8
  store double 0.000000e+00, ptr %75, align 8
  %76 = load ptr, ptr %3, align 8
  %77 = getelementptr inbounds nuw %struct.BitmapAndPath, ptr %76, i32 0, i32 0
  %78 = getelementptr inbounds nuw %struct.Path, ptr %77, i32 0, i32 9
  store i32 0, ptr %78, align 8
  %79 = load double, ptr %5, align 8
  %80 = load ptr, ptr %3, align 8
  %81 = getelementptr inbounds nuw %struct.BitmapAndPath, ptr %80, i32 0, i32 0
  %82 = getelementptr inbounds nuw %struct.Path, ptr %81, i32 0, i32 10
  store double %79, ptr %82, align 8
  %83 = load double, ptr %5, align 8
  %84 = load ptr, ptr %3, align 8
  %85 = getelementptr inbounds nuw %struct.BitmapAndPath, ptr %84, i32 0, i32 0
  %86 = getelementptr inbounds nuw %struct.Path, ptr %85, i32 0, i32 11
  store double %83, ptr %86, align 8
  call void @llvm.lifetime.end.p0(i64 8, ptr %7) #9
  call void @llvm.lifetime.end.p0(i64 8, ptr %6) #9
  call void @llvm.lifetime.end.p0(i64 8, ptr %5) #9
  ret void
}