; Function Attrs: nounwind uwtable
define dso_local void @cost_bitmap_and_node(ptr noundef captures(none) %0, ptr noundef readnone captures(none) %1) local_unnamed_addr #2 {
  %3 = getelementptr inbounds nuw i8, ptr %0, i64 80
  %4 = load ptr, ptr %3, align 8
  %.not = icmp eq ptr %4, null
  br i1 %.not, label %._crit_edge, label %.lr.ph

.lr.ph:                                           ; preds = %2
  %5 = getelementptr inbounds nuw i8, ptr %4, i64 4
  %6 = load i32, ptr %5, align 4
  %7 = load double, ptr @cpu_operator_cost, align 8
  %8 = fmul double %7, 1.000000e-01
  %9 = icmp sgt i32 %6, 0
  br i1 %9, label %.lr.ph47, label %._crit_edge

.lr.ph47:                                         ; preds = %.lr.ph
  %10 = getelementptr inbounds nuw i8, ptr %4, i64 16
  %11 = load ptr, ptr %10, align 8
  %wide.trip.count = zext nneg i32 %6 to i64
  br label %17

._crit_edge:                                      ; preds = %list_head.exit, %.lr.ph, %2
  %.020.lcssa = phi double [ 1.000000e+00, %2 ], [ 1.000000e+00, %.lr.ph ], [ %39, %list_head.exit ]
  %.0.lcssa = phi double [ 0.000000e+00, %2 ], [ 0.000000e+00, %.lr.ph ], [ %.1, %list_head.exit ]
  %12 = getelementptr inbounds nuw i8, ptr %0, i64 88
  store double %.020.lcssa, ptr %12, align 8
  %13 = getelementptr inbounds nuw i8, ptr %0, i64 40
  store double 0.000000e+00, ptr %13, align 8
  %14 = getelementptr inbounds nuw i8, ptr %0, i64 48
  store i32 0, ptr %14, align 8
  %15 = getelementptr inbounds nuw i8, ptr %0, i64 56
  store double %.0.lcssa, ptr %15, align 8
  %16 = getelementptr inbounds nuw i8, ptr %0, i64 64
  store double %.0.lcssa, ptr %16, align 8
  ret void

17:                                               ; preds = %.lr.ph47, %list_head.exit
  %indvars.iv = phi i64 [ 0, %.lr.ph47 ], [ %indvars.iv.next, %list_head.exit ]
  %.0203445 = phi double [ 1.000000e+00, %.lr.ph47 ], [ %39, %list_head.exit ]
  %.03544 = phi double [ 0.000000e+00, %.lr.ph47 ], [ %.1, %list_head.exit ]
  %18 = getelementptr inbounds nuw %union.ListCell, ptr %11, i64 %indvars.iv
  %19 = load ptr, ptr %18, align 8
  %20 = load i32, ptr %19, align 4
  switch i32 %20, label %.split [
    i32 279, label %21
    i32 282, label %28
    i32 283, label %32
  ]

21:                                               ; preds = %17
  %22 = getelementptr inbounds nuw i8, ptr %19, i64 120
  %23 = load double, ptr %22, align 8
  %24 = getelementptr inbounds nuw i8, ptr %19, i64 128
  %25 = getelementptr inbounds nuw i8, ptr %19, i64 40
  %26 = load double, ptr %25, align 8
  %27 = tail call double @llvm.fmuladd.f64(double %8, double %26, double %23)
  br label %list_head.exit

28:                                               ; preds = %17
  %29 = getelementptr inbounds nuw i8, ptr %19, i64 64
  %30 = load double, ptr %29, align 8
  %31 = getelementptr inbounds nuw i8, ptr %19, i64 88
  br label %list_head.exit

32:                                               ; preds = %17
  %33 = getelementptr inbounds nuw i8, ptr %19, i64 64
  %34 = load double, ptr %33, align 8
  %35 = getelementptr inbounds nuw i8, ptr %19, i64 88
  br label %list_head.exit

.split:                                           ; preds = %17
  %36 = tail call zeroext i1 @errstart_cold(i32 noundef 21, ptr noundef null) #18
  tail call void @llvm.assume(i1 %36)
  %37 = load i32, ptr %19, align 4
  %38 = tail call i32 (ptr, ...) @errmsg_internal(ptr noundef nonnull @.str, i32 noundef %37) #17
  tail call void @errfinish(ptr noundef nonnull @.str.1, i32 noundef 1149, ptr noundef nonnull @__func__.cost_bitmap_tree_node) #17
  unreachable

list_head.exit:                                   ; preds = %21, %28, %32
  %.028 = phi double [ %34, %32 ], [ %30, %28 ], [ %27, %21 ]
  %.027.in = phi ptr [ %35, %32 ], [ %31, %28 ], [ %24, %21 ]
  %.027 = load double, ptr %.027.in, align 8
  %39 = fmul double %.0203445, %.027
  %40 = fadd double %.03544, %.028
  %.not24 = icmp eq i64 %indvars.iv, 0
  %41 = tail call double @llvm.fmuladd.f64(double %7, double 1.000000e+02, double %40)
  %.1 = select i1 %.not24, double %40, double %41
  %indvars.iv.next = add nuw nsw i64 %indvars.iv, 1
  %exitcond.not = icmp eq i64 %indvars.iv.next, %wide.trip.count
  br i1 %exitcond.not, label %._crit_edge, label %17
}